target datalayout = "e-m:e-p270:32:32-p271:32:32-p272:64:64-i64:64-i128:128-f80:128-n8:16:32:64-S128"
target triple = "x86_64-unknown-linux-gnu"

%"class.google::protobuf::internal::InternalMetadata" = type { i64 }
%"class.google::protobuf::internal::CachedSize" = type { i32 }
%union.anon.1 = type { %"struct.google::protobuf::UInt32Value::Impl_" }
%"struct.google::protobuf::UInt32Value::Impl_" = type { i32, %"class.google::protobuf::internal::CachedSize" }
%"class.google::protobuf::Message" = type { %"class.google::protobuf::MessageLite" }
%"class.google::protobuf::MessageLite" = type { ptr, %"class.google::protobuf::internal::InternalMetadata" }
%"class.google::protobuf::UInt32Value" = type { %"class.google::protobuf::Message", %union.anon.1 }

; Function Attrs: noreturn nounwind uwtable
define linkonce_odr hidden void @__clang_call_terminate(ptr noundef %0) #6 comdat {
  %2 = call ptr @__cxa_begin_catch(ptr %0) #3
  call void @_ZSt9terminatev() #13
  unreachable
}

; Function Attrs: mustprogress nounwind uwtable
define linkonce_odr hidden noundef i32 @_ZN4absl12lts_2023080211countl_zeroIjEENSt9enable_ifIXsr3std11is_unsignedIT_EE5valueEiE4typeES3_(i32 noundef %x) #5 comdat personality ptr @__gxx_personality_v0 {
entry:
  %x.addr.i1 = alloca i32, align 4
  %x.addr.i = alloca i32, align 4
  %x.addr = alloca i32, align 4
  store i32 %x, ptr %x.addr, align 4
  %0 = load i32, ptr %x.addr, align 4
  store i32 %0, ptr %x.addr.i, align 4
  %1 = load i32, ptr %x.addr.i, align 4
  store i32 %1, ptr %x.addr.i1, align 4
  %2 = load i32, ptr %x.addr.i1, align 4
  %cmp.i = icmp eq i32 %2, 0
  br i1 %cmp.i, label %cond.true.i, label %cond.false.i

cond.true.i:                                      ; preds = %entry
  br label %_ZN4absl12lts_2023080216numeric_internal20CountLeadingZeroes32Ej.exit

cond.false.i:                                     ; preds = %entry
  %3 = load i32, ptr %x.addr.i1, align 4
  %4 = call i32 @llvm.ctlz.i32(i32 %3, i1 true)
  br label %_ZN4absl12lts_2023080216numeric_internal20CountLeadingZeroes32Ej.exit

_ZN4absl12lts_2023080216numeric_internal20CountLeadingZeroes32Ej.exit: ; preds = %cond.false.i, %cond.true.i
  %cond.i = phi i32 [ 32, %cond.true.i ], [ %4, %cond.false.i ]
  br label %invoke.cont

invoke.cont:                                      ; preds = %_ZN4absl12lts_2023080216numeric_internal20CountLeadingZeroes32Ej.exit
  ret i32 %cond.i

terminate.lpad:                                   ; No predecessors!
  %5 = landingpad { ptr, i32 }
          catch ptr null
  %6 = extractvalue { ptr, i32 } %5, 0
  call void @__clang_call_terminate(ptr %6) #13
  unreachable
}

; Function Attrs: mustprogress nounwind uwtable
define linkonce_odr hidden noundef i64 @_ZN6google8protobuf2io17CodedOutputStream19VarintSize32PlusOneEj(i32 noundef %value) #5 comdat align 2 {
entry:
  %value.addr = alloca i32, align 4
  %log2value = alloca i32, align 4
  store i32 %value, ptr %value.addr, align 4
  %0 = load i32, ptr %value.addr, align 4
  %or = or i32 %0, 1
  %call = call noundef i32 @_ZN4absl12lts_2023080211countl_zeroIjEENSt9enable_ifIXsr3std11is_unsignedIT_EE5valueEiE4typeES3_(i32 noundef %or) #3
  %sub = sub nsw i32 31, %call
  store i32 %sub, ptr %log2value, align 4
  %1 = load i32, ptr %log2value, align 4
  %mul = mul i32 %1, 9
  %add = add i32 %mul, 73
  %add1 = add i32 %add, 64
  %div = udiv i32 %add1, 64
  %conv = zext i32 %div to i64
  ret i64 %conv
}

; Function Attrs: mustprogress uwtable
define linkonce_odr hidden noundef i64 @_ZN6google8protobuf8internal14WireFormatLite17UInt32SizePlusOneEj(i32 noundef %value) #4 comdat align 2 {
entry:
  %value.addr = alloca i32, align 4
  store i32 %value, ptr %value.addr, align 4
  %0 = load i32, ptr %value.addr, align 4
  %call = call noundef i64 @_ZN6google8protobuf2io17CodedOutputStream19VarintSize32PlusOneEj(i32 noundef %0)
  ret i64 %call
}

; Function Attrs: mustprogress nounwind uwtable
define linkonce_odr hidden noundef i32 @_ZNK6google8protobuf11UInt32Value15_internal_valueEv(ptr noundef nonnull align 8 dereferenceable(24) %this) #5 comdat align 2 {
entry:
  %this.addr = alloca ptr, align 8
  store ptr %this, ptr %this.addr, align 8
  %this1 = load ptr, ptr %this.addr, align 8
  %0 = getelementptr inbounds %"class.google::protobuf::UInt32Value", ptr %this1, i32 0, i32 1
  %value_ = getelementptr inbounds %"struct.google::protobuf::UInt32Value::Impl_", ptr %0, i32 0, i32 0
  %1 = load i32, ptr %value_, align 8
  ret i32 %1
}

; Function Attrs: mustprogress uwtable
define noundef i64 @_ZNK6google8protobuf11UInt32Value12ByteSizeLongEv(ptr noundef nonnull align 8 dereferenceable(24) %this) unnamed_addr #4 align 2 {
entry:
  %this.addr = alloca ptr, align 8
  %total_size = alloca i64, align 8
  %cached_has_bits = alloca i32, align 4
  store ptr %this, ptr %this.addr, align 8
  %this1 = load ptr, ptr %this.addr, align 8
  store i64 0, ptr %total_size, align 8
  store i32 0, ptr %cached_has_bits, align 4
  %call = call noundef i32 @_ZNK6google8protobuf11UInt32Value15_internal_valueEv(ptr noundef nonnull align 8 dereferenceable(24) %this1)
  %cmp = icmp ne i32 %call, 0
  br i1 %cmp, label %if.then, label %if.end

if.then:                                          ; preds = %entry
  %call2 = call noundef i32 @_ZNK6google8protobuf11UInt32Value15_internal_valueEv(ptr noundef nonnull align 8 dereferenceable(24) %this1)
  %call3 = call noundef i64 @_ZN6google8protobuf8internal14WireFormatLite17UInt32SizePlusOneEj(i32 noundef %call2)
  %0 = load i64, ptr %total_size, align 8
  %add = add i64 %0, %call3
  store i64 %add, ptr %total_size, align 8
  br label %if.end

if.end:                                           ; preds = %if.then, %entry
  %1 = load i64, ptr %total_size, align 8
  %2 = getelementptr inbounds %"class.google::protobuf::UInt32Value", ptr %this1, i32 0, i32 1
  %_cached_size_ = getelementptr inbounds %"struct.google::protobuf::UInt32Value::Impl_", ptr %2, i32 0, i32 1
  %call4 = call noundef i64 @_ZNK6google8protobuf7Message29MaybeComputeUnknownFieldsSizeEmPNS0_8internal10CachedSizeE(ptr noundef nonnull align 8 dereferenceable(16) %this1, i64 noundef %1, ptr noundef %_cached_size_)
  ret i64 %call4
}